	.file	"snippet2.cpp"
	.intel_syntax noprefix
	.local	_ZStL8__ioinit
	.comm	_ZStL8__ioinit,1,1
	.text
	.globl	_Z6triplei
	.type	_Z6triplei, @function
_Z6triplei:
.LFB971:
	.cfi_startproc
	push	ebp
	.cfi_def_cfa_offset 8
	.cfi_offset 5, -8
	mov	ebp, esp
	.cfi_def_cfa_register 5
	sub	esp, 24
	mov	edx, DWORD PTR [ebp+8]
	mov	eax, edx
	add	eax, eax
	add	eax, edx
	mov	DWORD PTR [ebp+8], eax
	mov	eax, DWORD PTR [ebp+8]
	mov	DWORD PTR [esp+4], eax
	mov	DWORD PTR [esp], OFFSET FLAT:_ZSt4cout
	call	_ZNSolsEi
	mov	DWORD PTR [esp+4], OFFSET FLAT:_ZSt4endlIcSt11char_traitsIcEERSt13basic_ostreamIT_T0_ES6_
	mov	DWORD PTR [esp], eax
	call	_ZNSolsEPFRSoS_E
	leave
	.cfi_restore 5
	.cfi_def_cfa 4, 4
	ret
	.cfi_endproc
.LFE971:
	.size	_Z6triplei, .-_Z6triplei
	.globl	main
	.type	main, @function
main:
.LFB972:
	.cfi_startproc
	push	ebp
	.cfi_def_cfa_offset 8
	.cfi_offset 5, -8
	mov	ebp, esp
	.cfi_def_cfa_register 5
	and	esp, -16
	sub	esp, 32
	mov	DWORD PTR [esp+28], 0
	jmp	.L3
.L4:
	mov	eax, DWORD PTR [esp+28]
	mov	DWORD PTR [esp], eax
	call	_Z6triplei
	add	DWORD PTR [esp+28], 1
.L3:
	cmp	DWORD PTR [esp+28], 9
	jle	.L4
	mov	eax, 0
	leave
	.cfi_restore 5
	.cfi_def_cfa 4, 4
	ret
	.cfi_endproc
.LFE972:
	.size	main, .-main
	.type	_Z41__static_initialization_and_destruction_0ii, @function
_Z41__static_initialization_and_destruction_0ii:
.LFB978:
	.cfi_startproc
	push	ebp
	.cfi_def_cfa_offset 8
	.cfi_offset 5, -8
	mov	ebp, esp
	.cfi_def_cfa_register 5
	sub	esp, 24
	cmp	DWORD PTR [ebp+8], 1
	jne	.L6
	cmp	DWORD PTR [ebp+12], 65535
	jne	.L6
	mov	DWORD PTR [esp], OFFSET FLAT:_ZStL8__ioinit
	call	_ZNSt8ios_base4InitC1Ev
	mov	DWORD PTR [esp+8], OFFSET FLAT:__dso_handle
	mov	DWORD PTR [esp+4], OFFSET FLAT:_ZStL8__ioinit
	mov	DWORD PTR [esp], OFFSET FLAT:_ZNSt8ios_base4InitD1Ev
	call	__cxa_atexit
.L6:
	leave
	.cfi_restore 5
	.cfi_def_cfa 4, 4
	ret
	.cfi_endproc
.LFE978:
	.size	_Z41__static_initialization_and_destruction_0ii, .-_Z41__static_initialization_and_destruction_0ii
	.type	_GLOBAL__sub_I__Z6triplei, @function
_GLOBAL__sub_I__Z6triplei:
.LFB979:
	.cfi_startproc
	push	ebp
	.cfi_def_cfa_offset 8
	.cfi_offset 5, -8
	mov	ebp, esp
	.cfi_def_cfa_register 5
	sub	esp, 24
	mov	DWORD PTR [esp+4], 65535
	mov	DWORD PTR [esp], 1
	call	_Z41__static_initialization_and_destruction_0ii
	leave
	.cfi_restore 5
	.cfi_def_cfa 4, 4
	ret
	.cfi_endproc
.LFE979:
	.size	_GLOBAL__sub_I__Z6triplei, .-_GLOBAL__sub_I__Z6triplei
	.section	.init_array,"aw"
	.align 4
	.long	_GLOBAL__sub_I__Z6triplei
	.hidden	__dso_handle
	.ident	"GCC: (Ubuntu 4.8.4-2ubuntu1~14.04.1) 4.8.4"
	.section	.note.GNU-stack,"",@progbits
